Certificate:
    Data:
        Version: 1 (0x0)
        Serial Number: 1 (0x1)
        Signature Algorithm: sha256WithRSAEncryption
        Issuer: O=hw, CN=root
        Validity
            Not Before: Oct 15 13:27:14 2019 GMT
            Not After : Sep 21 13:27:14 2119 GMT
        Subject: O=hw, CN=root
        Subject Public Key Info:
            Public Key Algorithm: rsaEncryption
                RSA Public-Key: (2048 bit)
                Modulus:
                    00:cc:ca:e0:b6:e9:8f:85:b9:80:a0:a6:41:8c:ca:
                    0f:95:2b:7a:d3:f4:ad:fe:b0:45:e0:06:86:13:9c:
                    53:53:f1:73:b1:e1:4d:11:41:01:75:72:af:07:12:
                    7c:0b:9e:06:cc:74:f0:ee:40:a8:49:19:40:68:53:
                    ac:7a:e5:ae:e0:8c:68:cf:8b:08:1e:f2:18:16:3e:
                    a5:13:d0:d9:13:cc:4b:ab:bf:ff:8d:bc:74:2b:be:
                    5f:58:0f:f6:75:8d:5e:77:48:3a:aa:9c:3e:9b:58:
                    8e:8f:e7:76:b7:91:c7:60:16:21:23:72:92:2c:28:
                    21:eb:fb:0e:ba:cc:17:03:f7:2b:4e:67:06:a7:69:
                    ec:8f:b2:97:3d:03:cc:4c:f3:c6:9b:4e:2c:07:c9:
                    c7:78:bb:44:7e:13:65:cc:c4:9f:cc:9e:f5:69:09:
                    83:54:6c:45:15:51:e3:24:04:68:54:07:f1:7b:fc:
                    4a:c6:30:04:ee:ae:3b:47:f8:1e:9b:67:a6:86:0e:
                    9f:d5:5e:71:c2:9b:4e:23:28:46:e4:44:14:05:4f:
                    af:1f:54:c3:42:1c:35:40:a8:30:32:16:cc:a7:5d:
                    4b:e1:82:e2:2f:82:4a:69:2a:68:0b:b3:e3:a9:ea:
                    0c:c6:86:5a:d5:f6:b6:61:1e:a2:30:6b:1f:3f:a6:
                    92:89
                Exponent: 65537 (0x10001)
    Signature Algorithm: sha256WithRSAEncryption
         ab:2f:7f:93:ba:fe:af:e1:e5:b8:a0:5f:33:a0:a8:f6:d0:49:
         7e:aa:0d:eb:3c:e3:11:dd:a9:5c:6f:97:91:41:ca:00:01:45:
         cd:77:1f:f4:3a:03:82:e3:29:b6:bd:89:7c:29:d8:b5:4b:b7:
         bc:23:cf:13:4a:85:c9:b5:3f:47:8c:fe:1b:a0:45:95:c2:f3:
         2a:b7:4a:b4:58:d7:fe:67:32:b8:27:22:94:69:88:0b:a0:61:
         a7:fd:93:7d:e3:6d:28:14:ea:73:90:a7:b1:0a:73:b3:48:70:
         b9:b2:a9:9c:94:c4:a7:7e:80:ce:dc:d1:be:4a:45:38:7d:0f:
         f2:7c:de:9d:78:64:2d:97:77:7e:45:f1:c9:ad:5e:9e:d4:d8:
         17:b3:69:55:c4:ad:9c:22:ca:f1:16:b5:9b:e1:ee:fd:c5:52:
         55:67:7c:1a:84:d5:20:f1:3d:11:3f:69:0c:4e:99:61:54:e1:
         88:3c:3f:5d:12:6d:eb:3f:4d:32:cc:68:da:2b:15:36:d2:3d:
         a3:93:f3:a9:af:0d:6d:23:95:b0:4a:63:a0:de:5c:d0:de:83:
         70:ba:ac:ef:e9:7f:f7:7b:b2:cf:60:bf:eb:ba:b5:42:9a:38:
         7a:20:87:4a:d3:0b:d3:12:d9:99:13:b0:2c:dd:85:fc:0d:b4:
         ee:d6:cf:d3
-----BEGIN CERTIFICATE-----
MIICrjCCAZYCAQEwDQYJKoZIhvcNAQELBQAwHDELMAkGA1UECgwCaHcxDTALBgNV
BAMMBHJvb3QwIBcNMTkxMDE1MTMyNzE0WhgPMjExOTA5MjExMzI3MTRaMBwxCzAJ
BgNVBAoMAmh3MQ0wCwYDVQQDDARyb290MIIBIjANBgkqhkiG9w0BAQEFAAOCAQ8A
MIIBCgKCAQEAzMrgtumPhbmAoKZBjMoPlSt60/St/rBF4AaGE5xTU/FzseFNEUEB
dXKvBxJ8C54GzHTw7kCoSRlAaFOseuWu4Ixoz4sIHvIYFj6lE9DZE8xLq7//jbx0
K75fWA/2dY1ed0g6qpw+m1iOj+d2t5HHYBYhI3KSLCgh6/sOuswXA/crTmcGp2ns
j7KXPQPMTPPGm04sB8nHeLtEfhNlzMSfzJ71aQmDVGxFFVHjJARoVAfxe/xKxjAE
7q47R/gem2emhg6f1V5xwptOIyhG5EQUBU+vH1TDQhw1QKgwMhbMp11L4YLiL4JK
aSpoC7PjqeoMxoZa1fa2YR6iMGsfP6aSiQIDAQABMA0GCSqGSIb3DQEBCwUAA4IB
AQCrL3+Tuv6v4eW4oF8zoKj20El+qg3rPOMR3alcb5eRQcoAAUXNdx/0OgOC4ym2
vYl8Kdi1S7e8I88TSoXJtT9HjP4boEWVwvMqt0q0WNf+ZzK4JyKUaYgLoGGn/ZN9
420oFOpzkKexCnOzSHC5sqmclMSnfoDO3NG+SkU4fQ/yfN6deGQtl3d+RfHJrV6e
1NgXs2lVxK2cIsrxFrWb4e79xVJVZ3wahNUg8T0RP2kMTplhVOGIPD9dEm3rP00y
zGjaKxU20j2jk/Oprw1tI5WwSmOg3lzQ3oNwuqzv6X/3e7LPYL/rurVCmjh6IIdK
0wvTEtmZE7As3YX8DbTu1s/T
-----END CERTIFICATE-----
